target datalayout = "e-m:e-p270:32:32-p271:32:32-p272:64:64-i64:64-i128:128-f80:128-n8:16:32:64-S128"
target triple = "x86_64-unknown-linux-gnu"

%class.anon = type { ptr }
%"class.hermes::ConsoleHostContext" = type <{ %"class.std::__cxx11::list", %"class.std::unordered_map", i32, [4 x i8] }>
%"class.std::__cxx11::list" = type { %"class.std::__cxx11::_List_base" }
%"class.std::__cxx11::_List_base" = type { %"struct.std::__cxx11::_List_base<std::pair<unsigned int, hermes::vm::Callable *>, std::allocator<std::pair<unsigned int, hermes::vm::Callable *>>>::_List_impl" }
%"struct.std::__cxx11::_List_base<std::pair<unsigned int, hermes::vm::Callable *>, std::allocator<std::pair<unsigned int, hermes::vm::Callable *>>>::_List_impl" = type { %"struct.std::__detail::_List_node_header" }
%"struct.std::__detail::_List_node_header" = type { %"struct.std::__detail::_List_node_base", i64 }
%"struct.std::__detail::_List_node_base" = type { ptr, ptr }
%"class.std::unordered_map" = type { %"class.std::_Hashtable" }
%"class.std::_Hashtable" = type { ptr, i64, %"struct.std::__detail::_Hash_node_base", i64, %"struct.std::__detail::_Prime_rehash_policy", ptr }
%"struct.std::__detail::_Hash_node_base" = type { ptr }
%"struct.std::__detail::_Prime_rehash_policy" = type { float, i64 }
%"struct.std::_List_iterator" = type { ptr }
%"struct.std::pair.281" = type { i32, ptr }
%"struct.std::_List_node" = type { %"struct.std::__detail::_List_node_base", %"struct.__gnu_cxx::__aligned_membuf" }
%"struct.__gnu_cxx::__aligned_membuf" = type { [16 x i8] }

; Function Attrs: mustprogress nounwind uwtable
define linkonce_odr hidden noundef ptr @_ZN9__gnu_cxx16__aligned_membufISt4pairIjPN6hermes2vm8CallableEEE7_M_addrEv(ptr noundef nonnull align 8 dereferenceable(16) %this) #0 comdat align 2 {
entry:
  %this.addr = alloca ptr, align 8
  store ptr %this, ptr %this.addr, align 8
  %this1 = load ptr, ptr %this.addr, align 8
  %_M_storage = getelementptr inbounds %"struct.__gnu_cxx::__aligned_membuf", ptr %this1, i32 0, i32 0
  ret ptr %_M_storage
}

; Function Attrs: mustprogress nounwind uwtable
define linkonce_odr hidden noundef ptr @_ZN9__gnu_cxx16__aligned_membufISt4pairIjPN6hermes2vm8CallableEEE6_M_ptrEv(ptr noundef nonnull align 8 dereferenceable(16) %this) #0 comdat align 2 {
entry:
  %this.addr = alloca ptr, align 8
  store ptr %this, ptr %this.addr, align 8
  %this1 = load ptr, ptr %this.addr, align 8
  %call = call noundef ptr @_ZN9__gnu_cxx16__aligned_membufISt4pairIjPN6hermes2vm8CallableEEE7_M_addrEv(ptr noundef nonnull align 8 dereferenceable(16) %this1) #11
  ret ptr %call
}

; Function Attrs: mustprogress nounwind uwtable
define linkonce_odr hidden noundef ptr @_ZNSt10_List_nodeISt4pairIjPN6hermes2vm8CallableEEE9_M_valptrEv(ptr noundef nonnull align 8 dereferenceable(32) %this) #0 comdat align 2 {
entry:
  %this.addr = alloca ptr, align 8
  store ptr %this, ptr %this.addr, align 8
  %this1 = load ptr, ptr %this.addr, align 8
  %_M_storage = getelementptr inbounds %"struct.std::_List_node", ptr %this1, i32 0, i32 1
  %call = call noundef ptr @_ZN9__gnu_cxx16__aligned_membufISt4pairIjPN6hermes2vm8CallableEEE6_M_ptrEv(ptr noundef nonnull align 8 dereferenceable(16) %_M_storage) #11
  ret ptr %call
}

; Function Attrs: mustprogress nounwind uwtable
define linkonce_odr hidden void @_ZNSt14_List_iteratorISt4pairIjPN6hermes2vm8CallableEEEC2EPNSt8__detail15_List_node_baseE(ptr noundef nonnull align 8 dereferenceable(8) %this, ptr noundef %__x) unnamed_addr #0 comdat align 2 {
entry:
  %this.addr = alloca ptr, align 8
  %__x.addr = alloca ptr, align 8
  store ptr %this, ptr %this.addr, align 8
  store ptr %__x, ptr %__x.addr, align 8
  %this1 = load ptr, ptr %this.addr, align 8
  %_M_node = getelementptr inbounds %"struct.std::_List_iterator", ptr %this1, i32 0, i32 0
  %0 = load ptr, ptr %__x.addr, align 8
  store ptr %0, ptr %_M_node, align 8
  ret void
}

; Function Attrs: mustprogress nounwind uwtable
define linkonce_odr hidden noundef nonnull align 8 dereferenceable(8) ptr @_ZNSt14_List_iteratorISt4pairIjPN6hermes2vm8CallableEEEppEv(ptr noundef nonnull align 8 dereferenceable(8) %this) #0 comdat align 2 {
entry:
  %this.addr = alloca ptr, align 8
  store ptr %this, ptr %this.addr, align 8
  %this1 = load ptr, ptr %this.addr, align 8
  %_M_node = getelementptr inbounds %"struct.std::_List_iterator", ptr %this1, i32 0, i32 0
  %0 = load ptr, ptr %_M_node, align 8
  %_M_next = getelementptr inbounds %"struct.std::__detail::_List_node_base", ptr %0, i32 0, i32 0
  %1 = load ptr, ptr %_M_next, align 8
  %_M_node2 = getelementptr inbounds %"struct.std::_List_iterator", ptr %this1, i32 0, i32 0
  store ptr %1, ptr %_M_node2, align 8
  ret ptr %this1
}

; Function Attrs: mustprogress nounwind uwtable
define linkonce_odr hidden void @_ZN6hermes2vm12RootAcceptor9acceptPtrINS0_8CallableEEEvRPT_(ptr noundef nonnull align 8 dereferenceable(8) %this, ptr noundef nonnull align 8 dereferenceable(8) %ptr) #0 comdat align 2 {
entry:
  %this.addr = alloca ptr, align 8
  %ptr.addr = alloca ptr, align 8
  store ptr %this, ptr %this.addr, align 8
  store ptr %ptr, ptr %ptr.addr, align 8
  %this1 = load ptr, ptr %this.addr, align 8
  %0 = load ptr, ptr %ptr.addr, align 8
  %vtable = load ptr, ptr %this1, align 8
  %vfn = getelementptr inbounds ptr, ptr %vtable, i64 4
  %1 = load ptr, ptr %vfn, align 8
  call void %1(ptr noundef nonnull align 8 dereferenceable(8) %this1, ptr noundef nonnull align 8 dereferenceable(8) %0)
  ret void
}

; Function Attrs: mustprogress nounwind uwtable
define linkonce_odr hidden noundef nonnull align 8 dereferenceable(16) ptr @_ZNKSt14_List_iteratorISt4pairIjPN6hermes2vm8CallableEEEdeEv(ptr noundef nonnull align 8 dereferenceable(8) %this) #0 comdat align 2 {
entry:
  %this.addr = alloca ptr, align 8
  store ptr %this, ptr %this.addr, align 8
  %this1 = load ptr, ptr %this.addr, align 8
  %_M_node = getelementptr inbounds %"struct.std::_List_iterator", ptr %this1, i32 0, i32 0
  %0 = load ptr, ptr %_M_node, align 8
  %call = call noundef ptr @_ZNSt10_List_nodeISt4pairIjPN6hermes2vm8CallableEEE9_M_valptrEv(ptr noundef nonnull align 8 dereferenceable(32) %0)
  ret ptr %call
}

; Function Attrs: mustprogress nounwind uwtable
define linkonce_odr noundef zeroext i1 @_ZStneRKSt14_List_iteratorISt4pairIjPN6hermes2vm8CallableEEES8_(ptr noundef nonnull align 8 dereferenceable(8) %__x, ptr noundef nonnull align 8 dereferenceable(8) %__y) #0 comdat {
entry:
  %__x.addr = alloca ptr, align 8
  %__y.addr = alloca ptr, align 8
  store ptr %__x, ptr %__x.addr, align 8
  store ptr %__y, ptr %__y.addr, align 8
  %0 = load ptr, ptr %__x.addr, align 8
  %_M_node = getelementptr inbounds %"struct.std::_List_iterator", ptr %0, i32 0, i32 0
  %1 = load ptr, ptr %_M_node, align 8
  %2 = load ptr, ptr %__y.addr, align 8
  %_M_node1 = getelementptr inbounds %"struct.std::_List_iterator", ptr %2, i32 0, i32 0
  %3 = load ptr, ptr %_M_node1, align 8
  %cmp = icmp ne ptr %1, %3
  ret i1 %cmp
}

; Function Attrs: mustprogress nounwind uwtable
define linkonce_odr hidden ptr @_ZNSt7__cxx114listISt4pairIjPN6hermes2vm8CallableEESaIS6_EE3endEv(ptr noundef nonnull align 8 dereferenceable(24) %this) #0 comdat align 2 {
entry:
  %retval = alloca %"struct.std::_List_iterator", align 8
  %this.addr = alloca ptr, align 8
  store ptr %this, ptr %this.addr, align 8
  %this1 = load ptr, ptr %this.addr, align 8
  %_M_impl = getelementptr inbounds %"class.std::__cxx11::_List_base", ptr %this1, i32 0, i32 0
  %_M_node = getelementptr inbounds %"struct.std::__cxx11::_List_base<std::pair<unsigned int, hermes::vm::Callable *>, std::allocator<std::pair<unsigned int, hermes::vm::Callable *>>>::_List_impl", ptr %_M_impl, i32 0, i32 0
  call void @_ZNSt14_List_iteratorISt4pairIjPN6hermes2vm8CallableEEEC2EPNSt8__detail15_List_node_baseE(ptr noundef nonnull align 8 dereferenceable(8) %retval, ptr noundef %_M_node) #11
  %coerce.dive = getelementptr inbounds %"struct.std::_List_iterator", ptr %retval, i32 0, i32 0
  %0 = load ptr, ptr %coerce.dive, align 8
  ret ptr %0
}

; Function Attrs: mustprogress nounwind uwtable
define linkonce_odr hidden ptr @_ZNSt7__cxx114listISt4pairIjPN6hermes2vm8CallableEESaIS6_EE5beginEv(ptr noundef nonnull align 8 dereferenceable(24) %this) #0 comdat align 2 {
entry:
  %retval = alloca %"struct.std::_List_iterator", align 8
  %this.addr = alloca ptr, align 8
  store ptr %this, ptr %this.addr, align 8
  %this1 = load ptr, ptr %this.addr, align 8
  %_M_impl = getelementptr inbounds %"class.std::__cxx11::_List_base", ptr %this1, i32 0, i32 0
  %_M_node = getelementptr inbounds %"struct.std::__cxx11::_List_base<std::pair<unsigned int, hermes::vm::Callable *>, std::allocator<std::pair<unsigned int, hermes::vm::Callable *>>>::_List_impl", ptr %_M_impl, i32 0, i32 0
  %_M_next = getelementptr inbounds %"struct.std::__detail::_List_node_base", ptr %_M_node, i32 0, i32 0
  %0 = load ptr, ptr %_M_next, align 8
  call void @_ZNSt14_List_iteratorISt4pairIjPN6hermes2vm8CallableEEEC2EPNSt8__detail15_List_node_baseE(ptr noundef nonnull align 8 dereferenceable(8) %retval, ptr noundef %0) #11
  %coerce.dive = getelementptr inbounds %"struct.std::_List_iterator", ptr %retval, i32 0, i32 0
  %1 = load ptr, ptr %coerce.dive, align 8
  ret ptr %1
}

; Function Attrs: mustprogress nounwind uwtable
define internal void @"_ZZN6hermes18ConsoleHostContextC1ERNS_2vm7RuntimeEENK3$_0clEPNS1_7HadesGCERNS1_12RootAcceptorE"(ptr noundef nonnull align 8 dereferenceable(8) %this, ptr noundef %0, ptr noundef nonnull align 8 dereferenceable(8) %acceptor) #0 align 2 {
entry:
  %this.addr = alloca ptr, align 8
  %.addr = alloca ptr, align 8
  %acceptor.addr = alloca ptr, align 8
  %__range2 = alloca ptr, align 8
  %__begin2 = alloca %"struct.std::_List_iterator", align 8
  %__end2 = alloca %"struct.std::_List_iterator", align 8
  %entry5 = alloca ptr, align 8
  store ptr %this, ptr %this.addr, align 8
  store ptr %0, ptr %.addr, align 8
  store ptr %acceptor, ptr %acceptor.addr, align 8
  %this1 = load ptr, ptr %this.addr, align 8
  %1 = getelementptr inbounds %class.anon, ptr %this1, i32 0, i32 0
  %2 = load ptr, ptr %1, align 8
  %taskQueue_ = getelementptr inbounds %"class.hermes::ConsoleHostContext", ptr %2, i32 0, i32 0
  store ptr %taskQueue_, ptr %__range2, align 8
  %3 = load ptr, ptr %__range2, align 8
  %call = call ptr @_ZNSt7__cxx114listISt4pairIjPN6hermes2vm8CallableEESaIS6_EE5beginEv(ptr noundef nonnull align 8 dereferenceable(24) %3) #11
  %coerce.dive = getelementptr inbounds %"struct.std::_List_iterator", ptr %__begin2, i32 0, i32 0
  store ptr %call, ptr %coerce.dive, align 8
  %4 = load ptr, ptr %__range2, align 8
  %call2 = call ptr @_ZNSt7__cxx114listISt4pairIjPN6hermes2vm8CallableEESaIS6_EE3endEv(ptr noundef nonnull align 8 dereferenceable(24) %4) #11
  %coerce.dive3 = getelementptr inbounds %"struct.std::_List_iterator", ptr %__end2, i32 0, i32 0
  store ptr %call2, ptr %coerce.dive3, align 8
  br label %for.cond

for.cond:                                         ; preds = %for.inc, %entry
  %call4 = call noundef zeroext i1 @_ZStneRKSt14_List_iteratorISt4pairIjPN6hermes2vm8CallableEEES8_(ptr noundef nonnull align 8 dereferenceable(8) %__begin2, ptr noundef nonnull align 8 dereferenceable(8) %__end2) #11
  br i1 %call4, label %for.body, label %for.end

for.body:                                         ; preds = %for.cond
  %call6 = call noundef nonnull align 8 dereferenceable(16) ptr @_ZNKSt14_List_iteratorISt4pairIjPN6hermes2vm8CallableEEEdeEv(ptr noundef nonnull align 8 dereferenceable(8) %__begin2) #11
  store ptr %call6, ptr %entry5, align 8
  %5 = load ptr, ptr %acceptor.addr, align 8
  %6 = load ptr, ptr %entry5, align 8
  %second = getelementptr inbounds %"struct.std::pair.281", ptr %6, i32 0, i32 1
  call void @_ZN6hermes2vm12RootAcceptor9acceptPtrINS0_8CallableEEEvRPT_(ptr noundef nonnull align 8 dereferenceable(8) %5, ptr noundef nonnull align 8 dereferenceable(8) %second)
  br label %for.inc

for.inc:                                          ; preds = %for.body
  %call7 = call noundef nonnull align 8 dereferenceable(8) ptr @_ZNSt14_List_iteratorISt4pairIjPN6hermes2vm8CallableEEEppEv(ptr noundef nonnull align 8 dereferenceable(8) %__begin2) #11
  br label %for.cond

for.end:                                          ; preds = %for.cond
  ret void
}

; Function Attrs: mustprogress nounwind uwtable
define linkonce_odr noundef ptr @_ZNKSt9_Any_data9_M_accessEv(ptr noundef nonnull align 8 dereferenceable(16) %this) #0 comdat align 2 {
entry:
  %this.addr = alloca ptr, align 8
  store ptr %this, ptr %this.addr, align 8
  %this1 = load ptr, ptr %this.addr, align 8
  %arrayidx = getelementptr inbounds [16 x i8], ptr %this1, i64 0, i64 0
  ret ptr %arrayidx
}

; Function Attrs: mustprogress nounwind uwtable
define internal void @"_ZSt13__invoke_implIvRZN6hermes18ConsoleHostContextC1ERNS0_2vm7RuntimeEE3$_0JPNS2_7HadesGCERNS2_12RootAcceptorEEET_St14__invoke_otherOT0_DpOT1_"(ptr noundef nonnull align 8 dereferenceable(8) %__f, ptr noundef nonnull align 8 dereferenceable(8) %__args, ptr noundef nonnull align 8 dereferenceable(8) %__args1) #0 {
entry:
  %__f.addr = alloca ptr, align 8
  %__args.addr = alloca ptr, align 8
  %__args.addr2 = alloca ptr, align 8
  store ptr %__f, ptr %__f.addr, align 8
  store ptr %__args, ptr %__args.addr, align 8
  store ptr %__args1, ptr %__args.addr2, align 8
  %0 = load ptr, ptr %__f.addr, align 8
  %1 = load ptr, ptr %__args.addr, align 8
  %2 = load ptr, ptr %1, align 8
  %3 = load ptr, ptr %__args.addr2, align 8
  call void @"_ZZN6hermes18ConsoleHostContextC1ERNS_2vm7RuntimeEENK3$_0clEPNS1_7HadesGCERNS1_12RootAcceptorE"(ptr noundef nonnull align 8 dereferenceable(8) %0, ptr noundef %2, ptr noundef nonnull align 8 dereferenceable(8) %3)
  ret void
}

; Function Attrs: mustprogress nounwind uwtable
define internal noundef nonnull align 8 dereferenceable(8) ptr @"_ZNKSt9_Any_data9_M_accessIZN6hermes18ConsoleHostContextC1ERNS1_2vm7RuntimeEE3$_0EERKT_v"(ptr noundef nonnull align 8 dereferenceable(16) %this) #0 align 2 {
entry:
  %this.addr = alloca ptr, align 8
  store ptr %this, ptr %this.addr, align 8
  %this1 = load ptr, ptr %this.addr, align 8
  %call = call noundef ptr @_ZNKSt9_Any_data9_M_accessEv(ptr noundef nonnull align 8 dereferenceable(16) %this1) #11
  ret ptr %call
}

; Function Attrs: mustprogress nounwind uwtable
define internal void @"_ZSt10__invoke_rIvRZN6hermes18ConsoleHostContextC1ERNS0_2vm7RuntimeEE3$_0JPNS2_7HadesGCERNS2_12RootAcceptorEEENSt9enable_ifIX16is_invocable_r_vIT_T0_DpT1_EESC_E4typeEOSD_DpOSE_"(ptr noundef nonnull align 8 dereferenceable(8) %__fn, ptr noundef nonnull align 8 dereferenceable(8) %__args, ptr noundef nonnull align 8 dereferenceable(8) %__args1) #0 {
entry:
  %__fn.addr = alloca ptr, align 8
  %__args.addr = alloca ptr, align 8
  %__args.addr2 = alloca ptr, align 8
  store ptr %__fn, ptr %__fn.addr, align 8
  store ptr %__args, ptr %__args.addr, align 8
  store ptr %__args1, ptr %__args.addr2, align 8
  %0 = load ptr, ptr %__fn.addr, align 8
  %1 = load ptr, ptr %__args.addr, align 8
  %2 = load ptr, ptr %__args.addr2, align 8
  call void @"_ZSt13__invoke_implIvRZN6hermes18ConsoleHostContextC1ERNS0_2vm7RuntimeEE3$_0JPNS2_7HadesGCERNS2_12RootAcceptorEEET_St14__invoke_otherOT0_DpOT1_"(ptr noundef nonnull align 8 dereferenceable(8) %0, ptr noundef nonnull align 8 dereferenceable(8) %1, ptr noundef nonnull align 8 dereferenceable(8) %2)
  ret void
}

; Function Attrs: mustprogress nounwind uwtable
define internal noundef ptr @"_ZNSt14_Function_base13_Base_managerIZN6hermes18ConsoleHostContextC1ERNS1_2vm7RuntimeEE3$_0E14_M_get_pointerERKSt9_Any_data"(ptr noundef nonnull align 8 dereferenceable(16) %__source) #0 align 2 {
entry:
  %__source.addr = alloca ptr, align 8
  %__f = alloca ptr, align 8
  store ptr %__source, ptr %__source.addr, align 8
  %0 = load ptr, ptr %__source.addr, align 8
  %call = call noundef nonnull align 8 dereferenceable(8) ptr @"_ZNKSt9_Any_data9_M_accessIZN6hermes18ConsoleHostContextC1ERNS1_2vm7RuntimeEE3$_0EERKT_v"(ptr noundef nonnull align 8 dereferenceable(16) %0) #11
  store ptr %call, ptr %__f, align 8
  %1 = load ptr, ptr %__f, align 8
  ret ptr %1
}

; Function Attrs: mustprogress nounwind uwtable
define internal void @"_ZNSt17_Function_handlerIFvPN6hermes2vm7HadesGCERNS1_12RootAcceptorEEZNS0_18ConsoleHostContextC1ERNS1_7RuntimeEE3$_0E9_M_invokeERKSt9_Any_dataOS3_S5_"(ptr noundef nonnull align 8 dereferenceable(16) %__functor, ptr noundef nonnull align 8 dereferenceable(8) %__args, ptr noundef nonnull align 8 dereferenceable(8) %__args1) #0 align 2 {
entry:
  %__functor.addr = alloca ptr, align 8
  %__args.addr = alloca ptr, align 8
  %__args.addr2 = alloca ptr, align 8
  store ptr %__functor, ptr %__functor.addr, align 8
  store ptr %__args, ptr %__args.addr, align 8
  store ptr %__args1, ptr %__args.addr2, align 8
  %0 = load ptr, ptr %__functor.addr, align 8
  %call = call noundef ptr @"_ZNSt14_Function_base13_Base_managerIZN6hermes18ConsoleHostContextC1ERNS1_2vm7RuntimeEE3$_0E14_M_get_pointerERKSt9_Any_data"(ptr noundef nonnull align 8 dereferenceable(16) %0) #11
  %1 = load ptr, ptr %__args.addr, align 8
  %2 = load ptr, ptr %__args.addr2, align 8
  call void @"_ZSt10__invoke_rIvRZN6hermes18ConsoleHostContextC1ERNS0_2vm7RuntimeEE3$_0JPNS2_7HadesGCERNS2_12RootAcceptorEEENSt9enable_ifIX16is_invocable_r_vIT_T0_DpT1_EESC_E4typeEOSD_DpOSE_"(ptr noundef nonnull align 8 dereferenceable(8) %call, ptr noundef nonnull align 8 dereferenceable(8) %1, ptr noundef nonnull align 8 dereferenceable(8) %2)
  ret void
}